; ModuleID = '49/910.c'
source_filename = "49/910.c"
target datalayout = "e-m:e-p270:32:32-p271:32:32-p272:64:64-i64:64-f80:128-n8:16:32:64-S128"
target triple = "x86_64-pc-linux-gnu"

@.str = private unnamed_addr constant [3 x i8] c"%s\00", align 1
@.str.1 = private unnamed_addr constant [4 x i8] c"%s\0A\00", align 1

; Function Attrs: noinline nounwind uwtable
define dso_local i32 @check(i8* %0) #0 {
  %2 = alloca i32, align 4
  %3 = alloca i8*, align 8
  %4 = alloca i32, align 4
  %5 = alloca i32, align 4
  %6 = alloca [1000 x i8], align 16
  store i8* %0, i8** %3, align 8
  %7 = load i8*, i8** %3, align 8
  %8 = call i64 @strlen(i8* %7) #3
  %9 = trunc i64 %8 to i32
  store i32 %9, i32* %4, align 4
  store i32 0, i32* %5, align 4
  br label %10

10:                                               ; preds = %29, %1
  %11 = load i32, i32* %5, align 4
  %12 = load i32, i32* %4, align 4
  %13 = icmp slt i32 %11, %12
  br i1 %13, label %14, label %32

14:                                               ; preds = %10
  %15 = load i8*, i8** %3, align 8
  %16 = load i32, i32* %4, align 4
  %17 = sext i32 %16 to i64
  %18 = getelementptr inbounds i8, i8* %15, i64 %17
  %19 = load i32, i32* %5, align 4
  %20 = sext i32 %19 to i64
  %21 = sub i64 0, %20
  %22 = getelementptr inbounds i8, i8* %18, i64 %21
  %23 = getelementptr inbounds i8, i8* %22, i64 -1
  %24 = load i8, i8* %23, align 1
  %25 = getelementptr inbounds [1000 x i8], [1000 x i8]* %6, i64 0, i64 0
  %26 = load i32, i32* %5, align 4
  %27 = sext i32 %26 to i64
  %28 = getelementptr inbounds i8, i8* %25, i64 %27
  store i8 %24, i8* %28, align 1
  br label %29

29:                                               ; preds = %14
  %30 = load i32, i32* %5, align 4
  %31 = add nsw i32 %30, 1
  store i32 %31, i32* %5, align 4
  br label %10

32:                                               ; preds = %10
  %33 = getelementptr inbounds [1000 x i8], [1000 x i8]* %6, i64 0, i64 0
  %34 = load i32, i32* %4, align 4
  %35 = sext i32 %34 to i64
  %36 = getelementptr inbounds i8, i8* %33, i64 %35
  store i8 0, i8* %36, align 1
  %37 = load i8*, i8** %3, align 8
  %38 = getelementptr inbounds [1000 x i8], [1000 x i8]* %6, i64 0, i64 0
  %39 = call i32 @strcmp(i8* %37, i8* %38) #3
  %40 = icmp eq i32 %39, 0
  br i1 %40, label %41, label %42

41:                                               ; preds = %32
  store i32 1, i32* %2, align 4
  br label %43

42:                                               ; preds = %32
  store i32 0, i32* %2, align 4
  br label %43

43:                                               ; preds = %42, %41
  %44 = load i32, i32* %2, align 4
  ret i32 %44
}

; Function Attrs: nounwind readonly
declare dso_local i64 @strlen(i8*) #1

; Function Attrs: nounwind readonly
declare dso_local i32 @strcmp(i8*, i8*) #1

; Function Attrs: noinline nounwind uwtable
define dso_local i32 @main() #0 {
  %1 = alloca i32, align 4
  %2 = alloca [1000 x i8], align 16
  %3 = alloca [1000 x i8], align 16
  %4 = alloca i32, align 4
  %5 = alloca i32, align 4
  %6 = alloca i32, align 4
  %7 = alloca i32, align 4
  %8 = alloca i32, align 4
  store i32 0, i32* %1, align 4
  %9 = getelementptr inbounds [1000 x i8], [1000 x i8]* %2, i64 0, i64 0
  %10 = call i32 (i8*, ...) @__isoc99_scanf(i8* getelementptr inbounds ([3 x i8], [3 x i8]* @.str, i64 0, i64 0), i8* %9)
  %11 = getelementptr inbounds [1000 x i8], [1000 x i8]* %2, i64 0, i64 0
  %12 = call i64 @strlen(i8* %11) #3
  %13 = trunc i64 %12 to i32
  store i32 %13, i32* %7, align 4
  store i32 2, i32* %4, align 4
  br label %14

14:                                               ; preds = %61, %0
  %15 = load i32, i32* %4, align 4
  %16 = load i32, i32* %7, align 4
  %17 = icmp sle i32 %15, %16
  br i1 %17, label %18, label %64

18:                                               ; preds = %14
  store i32 0, i32* %5, align 4
  br label %19

19:                                               ; preds = %57, %18
  %20 = load i32, i32* %5, align 4
  %21 = load i32, i32* %7, align 4
  %22 = load i32, i32* %4, align 4
  %23 = sub nsw i32 %21, %22
  %24 = icmp sle i32 %20, %23
  br i1 %24, label %25, label %60

25:                                               ; preds = %19
  store i32 0, i32* %8, align 4
  br label %26

26:                                               ; preds = %43, %25
  %27 = load i32, i32* %8, align 4
  %28 = load i32, i32* %4, align 4
  %29 = icmp slt i32 %27, %28
  br i1 %29, label %30, label %46

30:                                               ; preds = %26
  %31 = getelementptr inbounds [1000 x i8], [1000 x i8]* %2, i64 0, i64 0
  %32 = load i32, i32* %5, align 4
  %33 = sext i32 %32 to i64
  %34 = getelementptr inbounds i8, i8* %31, i64 %33
  %35 = load i32, i32* %8, align 4
  %36 = sext i32 %35 to i64
  %37 = getelementptr inbounds i8, i8* %34, i64 %36
  %38 = load i8, i8* %37, align 1
  %39 = getelementptr inbounds [1000 x i8], [1000 x i8]* %3, i64 0, i64 0
  %40 = load i32, i32* %8, align 4
  %41 = sext i32 %40 to i64
  %42 = getelementptr inbounds i8, i8* %39, i64 %41
  store i8 %38, i8* %42, align 1
  br label %43

43:                                               ; preds = %30
  %44 = load i32, i32* %8, align 4
  %45 = add nsw i32 %44, 1
  store i32 %45, i32* %8, align 4
  br label %26

46:                                               ; preds = %26
  %47 = load i32, i32* %4, align 4
  %48 = sext i32 %47 to i64
  %49 = getelementptr inbounds [1000 x i8], [1000 x i8]* %3, i64 0, i64 %48
  store i8 0, i8* %49, align 1
  %50 = getelementptr inbounds [1000 x i8], [1000 x i8]* %3, i64 0, i64 0
  %51 = call i32 @check(i8* %50)
  %52 = icmp ne i32 %51, 0
  br i1 %52, label %53, label %56

53:                                               ; preds = %46
  %54 = getelementptr inbounds [1000 x i8], [1000 x i8]* %3, i64 0, i64 0
  %55 = call i32 (i8*, ...) @printf(i8* getelementptr inbounds ([4 x i8], [4 x i8]* @.str.1, i64 0, i64 0), i8* %54)
  br label %56

56:                                               ; preds = %53, %46
  br label %57

57:                                               ; preds = %56
  %58 = load i32, i32* %5, align 4
  %59 = add nsw i32 %58, 1
  store i32 %59, i32* %5, align 4
  br label %19

60:                                               ; preds = %19
  br label %61

61:                                               ; preds = %60
  %62 = load i32, i32* %4, align 4
  %63 = add nsw i32 %62, 1
  store i32 %63, i32* %4, align 4
  br label %14

64:                                               ; preds = %14
  ret i32 0
}

declare dso_local i32 @__isoc99_scanf(i8*, ...) #2

declare dso_local i32 @printf(i8*, ...) #2


!llvm.module.flags = !{!0}
!llvm.ident = !{!1}

!0 = !{i32 1, !"wchar_size", i32 4}
!1 = !{!"clang version 10.0.0-4ubuntu1 "}
